target datalayout = "e-m:e-p270:32:32-p271:32:32-p272:64:64-i64:64-i128:128-f80:128-n8:16:32:64-S128"
target triple = "x86_64-pc-linux-gnu"

; Function Attrs: mustprogress nounwind uwtable
define internal void @_ZL22maybe_append_error_msgPKcPPc(ptr noundef %0, ptr noundef %1) #0 {
  %3 = alloca ptr, align 8
  %4 = alloca ptr, align 8
  %5 = alloca i32, align 4
  store ptr %0, ptr %3, align 8, !tbaa !32
  store ptr %1, ptr %4, align 8, !tbaa !17
  %6 = load ptr, ptr %4, align 8, !tbaa !17
  %7 = icmp ne ptr %6, null
  br i1 %7, label %8, label %35

8:                                                ; preds = %2
  %9 = load ptr, ptr %3, align 8, !tbaa !32
  %10 = icmp ne ptr %9, null
  br i1 %10, label %11, label %35

11:                                               ; preds = %8
  call void @llvm.lifetime.start.p0(i64 4, ptr %5) #8
  %12 = load ptr, ptr %4, align 8, !tbaa !17
  %13 = load ptr, ptr %12, align 8, !tbaa !32
  %14 = call i64 @strlen(ptr noundef %13) #9
  %15 = trunc i64 %14 to i32
  store i32 %15, ptr %5, align 4, !tbaa !39
  %16 = load ptr, ptr %4, align 8, !tbaa !17
  %17 = load ptr, ptr %16, align 8, !tbaa !32
  %18 = load i32, ptr %5, align 4, !tbaa !39
  %19 = sext i32 %18 to i64
  %20 = load ptr, ptr %3, align 8, !tbaa !32
  %21 = call i64 @strlen(ptr noundef %20) #9
  %22 = add i64 %19, %21
  %23 = add i64 %22, 1
  %24 = call ptr @realloc(ptr noundef %17, i64 noundef %23) #10
  %25 = load ptr, ptr %4, align 8, !tbaa !17
  store ptr %24, ptr %25, align 8, !tbaa !32
  %26 = load ptr, ptr %4, align 8, !tbaa !17
  %27 = load ptr, ptr %26, align 8, !tbaa !32
  %28 = load i32, ptr %5, align 4, !tbaa !39
  %29 = sext i32 %28 to i64
  %30 = getelementptr inbounds i8, ptr %27, i64 %29
  %31 = load ptr, ptr %3, align 8, !tbaa !32
  %32 = load ptr, ptr %3, align 8, !tbaa !32
  %33 = call i64 @strlen(ptr noundef %32) #9
  %34 = add i64 %33, 1
  call void @llvm.memcpy.p0.p0.i64(ptr align 1 %30, ptr align 1 %31, i64 %34, i1 false)
  call void @llvm.lifetime.end.p0(i64 4, ptr %5) #8
  br label %35

35:                                               ; preds = %11, %8, %2
  ret void
}