; Function Attrs: mustprogress nounwind willreturn uwtable
define internal fastcc void @_ZL22maybe_append_error_msgPKcPPc(ptr noundef readonly %0, ptr noundef %1) unnamed_addr #7 {
  %3 = icmp ne ptr %1, null
  %4 = icmp ne ptr %0, null
  %or.cond = and i1 %4, %3
  br i1 %or.cond, label %5, label %16

5:                                                ; preds = %2
  %6 = load ptr, ptr %1, align 8, !tbaa !12
  %7 = tail call i64 @strlen(ptr noundef nonnull dereferenceable(1) %6) #12
  %sext = shl i64 %7, 32
  %8 = ashr exact i64 %sext, 32
  %9 = tail call i64 @strlen(ptr noundef nonnull dereferenceable(1) %0) #12
  %10 = add i64 %9, 1
  %11 = add i64 %10, %8
  %12 = tail call ptr @realloc(ptr noundef nonnull %6, i64 noundef %11) #13
  store ptr %12, ptr %1, align 8, !tbaa !12
  %13 = getelementptr inbounds i8, ptr %12, i64 %8
  %14 = tail call i64 @strlen(ptr noundef nonnull dereferenceable(1) %0) #12
  %15 = add i64 %14, 1
  tail call void @llvm.memcpy.p0.p0.i64(ptr align 1 %13, ptr nonnull align 1 %0, i64 %15, i1 false)
  br label %16

16:                                               ; preds = %5, %2
  ret void
}